Certificate:
    Data:
        Version: 3 (0x2)
        Serial Number: 1 (0x1)
        Signature Algorithm: sha256WithRSAEncryption
        Issuer: CN=openqkd-jitsi-host
        Validity
            Not Before: Sep 22 19:31:57 2022 GMT
            Not After : Sep 19 19:31:57 2032 GMT
        Subject: CN=openqkd-jitsi-host
        Subject Public Key Info:
            Public Key Algorithm: rsaEncryption
                RSA Public-Key: (2048 bit)
                Modulus:
                    00:d5:5b:24:b8:ff:99:05:1d:e9:cb:11:72:ba:03:
                    31:64:67:91:a9:2b:80:df:84:2d:c7:23:c8:64:a4:
                    be:f4:2f:56:45:a1:84:93:24:16:23:96:b0:7a:d2:
                    b1:b1:51:a8:8c:6e:aa:e6:e5:c8:4e:2f:e9:2a:7d:
                    20:7e:cc:37:0a:44:b1:d6:ad:dd:cc:b7:36:49:02:
                    6f:b4:35:db:4f:b4:e9:a3:7b:ad:77:62:2d:58:66:
                    c7:22:ec:a5:fd:ee:58:cd:15:59:b4:90:33:9b:38:
                    c7:95:f2:a9:35:70:c2:fd:1f:07:3d:21:8e:c1:85:
                    28:d5:02:d7:f7:d7:0a:ec:c1:3a:8b:c0:1c:c8:85:
                    5e:e9:6b:9b:d9:ea:a7:04:7c:e3:c2:c8:29:83:4d:
                    00:00:ac:d7:2b:d2:2f:13:ea:62:c0:7a:1a:a8:6f:
                    c8:86:80:76:ef:9d:13:3a:16:0b:26:83:af:c0:b8:
                    01:0d:15:bb:c8:64:96:80:fc:d2:5f:ff:15:8f:49:
                    88:b1:b7:d2:57:22:5a:01:63:35:9b:47:8c:16:c9:
                    89:3d:f3:d1:03:bb:ff:1c:a5:83:c7:1d:28:4e:c6:
                    70:5f:41:3e:63:9d:77:4e:b5:e1:3c:5b:eb:77:71:
                    fd:f1:8f:8a:db:29:3f:7d:5e:f9:ea:5e:a3:39:3f:
                    af:21
                Exponent: 65537 (0x10001)
        X509v3 extensions:
            X509v3 Basic Constraints: 
                CA:FALSE
            X509v3 Subject Key Identifier: 
                CD:75:29:AF:44:14:C8:DA:22:9F:D5:76:2B:6E:BC:15:FD:CF:D9:1B
            X509v3 Authority Key Identifier: 
                keyid:0C:A0:82:82:47:34:DB:29:46:6F:56:3D:BB:30:E5:AD:23:E0:33:5F
                DirName:/CN=openqkd-jitsi-host
                serial:71:20:91:86:C9:9D:D3:94:83:A6:86:C0:1D:D0:0F:AE:D0:05:23:EB

            X509v3 Extended Key Usage: 
                TLS Web Client Authentication
            X509v3 Key Usage: 
                Digital Signature
    Signature Algorithm: sha256WithRSAEncryption
         0f:07:f8:f5:ac:36:58:95:89:ce:18:42:bb:69:e7:d6:5b:42:
         de:6f:28:fc:e7:25:dc:d6:c3:00:9f:ff:e9:64:7d:23:07:eb:
         58:2c:48:a4:76:5c:20:6c:b5:c5:89:94:e6:aa:d9:13:2b:07:
         7a:73:bc:d4:6b:3e:1a:1f:03:78:4e:78:38:b1:b4:5d:34:6b:
         3b:6c:20:f0:2d:52:cb:16:99:a1:e4:0c:0a:84:25:1c:55:e5:
         86:df:80:13:15:4d:86:7f:cc:1b:dd:fc:51:3e:55:16:05:1c:
         ec:4b:c1:ac:6f:d1:d3:63:3c:7c:61:26:41:1c:77:1f:67:f0:
         1b:91:33:c5:66:41:b7:93:9f:14:a2:c5:ec:2a:1d:1c:a3:8c:
         9f:21:57:92:de:b0:2f:81:b1:d4:6f:c6:a5:49:e0:5e:d1:39:
         8b:9c:87:d2:7a:c9:de:c1:a0:f4:bd:80:11:06:7c:28:16:35:
         b5:30:88:f0:37:ee:6b:57:b1:85:20:2c:79:4a:ee:f9:9b:8a:
         33:7b:56:f7:e1:b6:19:76:53:6b:de:23:fa:e8:86:5d:82:28:
         a3:77:cf:43:66:b3:91:6b:94:5f:4a:f1:37:af:29:5f:6f:87:
         24:00:46:9e:c3:97:06:f1:c8:e6:14:4b:61:b4:da:2f:e6:dc:
         d9:6e:07:b5
-----BEGIN CERTIFICATE-----
MIIDXzCCAkegAwIBAgIBATANBgkqhkiG9w0BAQsFADAdMRswGQYDVQQDDBJvcGVu
cWtkLWppdHNpLWhvc3QwHhcNMjIwOTIyMTkzMTU3WhcNMzIwOTE5MTkzMTU3WjAd
MRswGQYDVQQDDBJvcGVucWtkLWppdHNpLWhvc3QwggEiMA0GCSqGSIb3DQEBAQUA
A4IBDwAwggEKAoIBAQDVWyS4/5kFHenLEXK6AzFkZ5GpK4DfhC3HI8hkpL70L1ZF
oYSTJBYjlrB60rGxUaiMbqrm5chOL+kqfSB+zDcKRLHWrd3MtzZJAm+0NdtPtOmj
e613Yi1YZsci7KX97ljNFVm0kDObOMeV8qk1cML9Hwc9IY7BhSjVAtf31wrswTqL
wBzIhV7pa5vZ6qcEfOPCyCmDTQAArNcr0i8T6mLAehqob8iGgHbvnRM6Fgsmg6/A
uAENFbvIZJaA/NJf/xWPSYixt9JXIloBYzWbR4wWyYk989EDu/8cpYPHHShOxnBf
QT5jnXdOteE8W+t3cf3xj4rbKT99XvnqXqM5P68hAgMBAAGjgakwgaYwCQYDVR0T
BAIwADAdBgNVHQ4EFgQUzXUpr0QUyNoin9V2K268Ff3P2RswWAYDVR0jBFEwT4AU
DKCCgkc02ylGb1Y9uzDlrSPgM1+hIaQfMB0xGzAZBgNVBAMMEm9wZW5xa2Qtaml0
c2ktaG9zdIIUcSCRhsmd05SDpobAHdAPrtAFI+swEwYDVR0lBAwwCgYIKwYBBQUH
AwIwCwYDVR0PBAQDAgeAMA0GCSqGSIb3DQEBCwUAA4IBAQAPB/j1rDZYlYnOGEK7
aefWW0Lebyj85yXc1sMAn//pZH0jB+tYLEikdlwgbLXFiZTmqtkTKwd6c7zUaz4a
HwN4Tng4sbRdNGs7bCDwLVLLFpmh5AwKhCUcVeWG34ATFU2Gf8wb3fxRPlUWBRzs
S8Gsb9HTYzx8YSZBHHcfZ/AbkTPFZkG3k58UosXsKh0co4yfIVeS3rAvgbHUb8al
SeBe0TmLnIfSesnewaD0vYARBnwoFjW1MIjwN+5rV7GFICx5Su75m4oze1b34bYZ
dlNr3iP66IZdgiijd89DZrORa5RfSvE3rylfb4ckAEaew5cG8cjmFEthtNov5tzZ
bge1
-----END CERTIFICATE-----
