Certificate:
    Data:
        Version: 3 (0x2)
        Serial Number: 3 (0x3)
        Signature Algorithm: sha256WithRSAEncryption
        Issuer: CN=openqkd-jitsi-host
        Validity
            Not Before: Sep 22 19:54:50 2022 GMT
            Not After : Sep 19 19:54:50 2032 GMT
        Subject: CN=openqkd-jitsi-client1
        Subject Public Key Info:
            Public Key Algorithm: rsaEncryption
                RSA Public-Key: (2048 bit)
                Modulus:
                    00:be:c5:8c:3d:74:d9:73:fb:8f:5c:bf:64:96:63:
                    5c:32:23:e2:e6:54:f3:e1:fe:f9:94:4d:c8:6c:6f:
                    f6:11:89:56:59:3a:9c:a6:5d:48:3c:6d:21:e1:ac:
                    3b:6e:66:b8:73:fe:e1:e9:63:0b:b5:6e:e1:ec:9c:
                    e9:1e:ad:77:cd:f3:52:63:2e:bb:32:bd:f4:5d:eb:
                    81:47:76:55:c7:0b:a3:a7:5f:c5:b9:ca:28:db:41:
                    c2:4e:a0:b9:20:c3:2f:51:aa:b8:4e:ab:c1:c2:e4:
                    be:e9:58:3f:02:9c:14:14:fe:7a:01:96:34:93:0b:
                    d3:5a:87:e2:3a:6e:7f:dc:01:89:5b:99:80:b0:f7:
                    23:e6:41:46:ac:47:ea:d9:77:90:b8:8a:06:01:6b:
                    8f:e7:6b:55:c1:f9:e2:76:b1:73:6f:d7:6d:75:8a:
                    63:6f:e8:ff:14:55:b0:c2:91:68:cf:15:ad:a1:e3:
                    70:1a:4d:00:f8:2a:77:40:5f:4f:66:c2:2f:6c:94:
                    0f:49:e9:ed:49:f5:0a:ee:a9:43:fb:72:43:ba:b4:
                    73:67:88:a5:e7:84:9b:69:6d:44:87:fc:24:c3:52:
                    90:dc:9d:87:80:89:3e:57:fa:09:9c:e0:47:8d:25:
                    7e:3c:e4:66:03:23:75:09:31:9a:77:df:17:2c:ea:
                    80:69
                Exponent: 65537 (0x10001)
        X509v3 extensions:
            X509v3 Basic Constraints: 
                CA:FALSE
            X509v3 Subject Key Identifier: 
                A3:CD:54:53:76:B8:E3:FB:82:C8:CA:0A:60:2A:79:BC:BA:93:22:A1
            X509v3 Authority Key Identifier: 
                keyid:0C:A0:82:82:47:34:DB:29:46:6F:56:3D:BB:30:E5:AD:23:E0:33:5F
                DirName:/CN=openqkd-jitsi-host
                serial:71:20:91:86:C9:9D:D3:94:83:A6:86:C0:1D:D0:0F:AE:D0:05:23:EB

            X509v3 Extended Key Usage: 
                TLS Web Client Authentication
            X509v3 Key Usage: 
                Digital Signature
    Signature Algorithm: sha256WithRSAEncryption
         1a:3c:2a:60:e6:46:b1:c5:26:9b:53:d8:06:10:4a:50:27:20:
         fe:0c:92:cc:ed:1e:51:43:b4:66:a8:17:2a:0b:c4:9e:fe:2c:
         6b:5e:1c:03:82:98:de:d8:61:1e:66:4f:ab:02:d7:b2:b3:95:
         cf:ef:89:bf:87:4b:5f:c8:ed:20:5f:c9:6d:7f:db:fd:3c:cc:
         dd:b3:6f:9b:9f:49:4e:76:9a:da:bd:57:3e:a0:d1:da:a5:e2:
         0e:3a:6c:d3:99:4b:2e:90:5d:5b:41:9d:3d:da:d6:9a:af:28:
         21:00:5b:09:11:9e:92:d2:4f:1b:da:5e:1a:2b:0c:c3:7c:96:
         4b:a4:df:48:95:b5:99:d0:89:1e:28:3f:94:3f:8a:ac:a6:73:
         a1:8b:a5:37:33:f3:00:68:51:b6:02:2a:5b:fb:3e:14:9a:99:
         fd:13:83:9f:b8:31:46:01:fc:db:4c:7c:07:a7:dc:30:7f:36:
         be:c1:32:36:49:f3:55:4a:4c:97:09:50:f2:1f:70:4a:d8:6f:
         c9:cf:53:8a:0b:02:f1:77:81:87:00:c4:18:bd:d1:3b:b4:a4:
         41:d6:ab:82:18:73:64:0a:89:63:fc:22:f8:37:00:34:95:8f:
         66:bd:c5:62:29:07:9f:26:7d:bc:5e:25:8f:0a:06:8e:f8:61:
         c7:13:c3:b2
-----BEGIN CERTIFICATE-----
MIIDYjCCAkqgAwIBAgIBAzANBgkqhkiG9w0BAQsFADAdMRswGQYDVQQDDBJvcGVu
cWtkLWppdHNpLWhvc3QwHhcNMjIwOTIyMTk1NDUwWhcNMzIwOTE5MTk1NDUwWjAg
MR4wHAYDVQQDDBVvcGVucWtkLWppdHNpLWNsaWVudDEwggEiMA0GCSqGSIb3DQEB
AQUAA4IBDwAwggEKAoIBAQC+xYw9dNlz+49cv2SWY1wyI+LmVPPh/vmUTchsb/YR
iVZZOpymXUg8bSHhrDtuZrhz/uHpYwu1buHsnOkerXfN81JjLrsyvfRd64FHdlXH
C6OnX8W5yijbQcJOoLkgwy9RqrhOq8HC5L7pWD8CnBQU/noBljSTC9Nah+I6bn/c
AYlbmYCw9yPmQUasR+rZd5C4igYBa4/na1XB+eJ2sXNv1211imNv6P8UVbDCkWjP
Fa2h43AaTQD4KndAX09mwi9slA9J6e1J9QruqUP7ckO6tHNniKXnhJtpbUSH/CTD
UpDcnYeAiT5X+gmc4EeNJX485GYDI3UJMZp33xcs6oBpAgMBAAGjgakwgaYwCQYD
VR0TBAIwADAdBgNVHQ4EFgQUo81UU3a44/uCyMoKYCp5vLqTIqEwWAYDVR0jBFEw
T4AUDKCCgkc02ylGb1Y9uzDlrSPgM1+hIaQfMB0xGzAZBgNVBAMMEm9wZW5xa2Qt
aml0c2ktaG9zdIIUcSCRhsmd05SDpobAHdAPrtAFI+swEwYDVR0lBAwwCgYIKwYB
BQUHAwIwCwYDVR0PBAQDAgeAMA0GCSqGSIb3DQEBCwUAA4IBAQAaPCpg5kaxxSab
U9gGEEpQJyD+DJLM7R5RQ7RmqBcqC8Se/ixrXhwDgpje2GEeZk+rAteys5XP74m/
h0tfyO0gX8ltf9v9PMzds2+bn0lOdpravVc+oNHapeIOOmzTmUsukF1bQZ092taa
ryghAFsJEZ6S0k8b2l4aKwzDfJZLpN9IlbWZ0IkeKD+UP4qspnOhi6U3M/MAaFG2
Aipb+z4Umpn9E4OfuDFGAfzbTHwHp9wwfza+wTI2SfNVSkyXCVDyH3BK2G/Jz1OK
CwLxd4GHAMQYvdE7tKRB1quCGHNkColj/CL4NwA0lY9mvcViKQefJn28XiWPCgaO
+GHHE8Oy
-----END CERTIFICATE-----
